(dp1
S'output'
p2
S"<class 'httplib.IncompleteRead'> IncompleteRead(0 bytes read)"
p3
sS'layer'
p4
S'/opt/web2py/applications/know_your_world/controllers/autofill.py'
p5
sS'code'
p6
S'from bs4 import BeautifulSoup\nimport re,urllib2,sys\nimport MySQLdb as mdb\n\ndef fill():\n    page = urllib2.urlopen("https://www.cia.gov/library/publications/the-world-factbook/index.html")\n\n    soup = BeautifulSoup(page)\n\n    ul_tag = soup.find_all(\'ul\',class_="af")\n\n    ul_tag = ul_tag[0]\n\n    a_tag = ul_tag.find_all(\'a\')\n    db.sdata.truncate()\n    #con = mdb.connect(host=\'localhost\',user=\'root\',passwd=\'wtfcall911\',db=\'factbook\')\n    #cur = con.cursor()\n#cur.execute("DROP TABLE IF EXISTS SHITDATA")\n\n#sql = """CREATE TABLE shitdata (\n#\t     country_id TEXT NOT NULL PRIMARY KEY,\n#\t     country TEXT ,\n#\t     data LONGTEXT)"""\n\n#cur.execute(sql)\n    for tag in a_tag:\n        tag = str(tag)\n        soup2 = BeautifulSoup(tag)\n        if soup2.a.string != \'World\':\n            country=str(soup2.a.string)\n        else:\n            continue\n        c_id = soup2.a[\'href\']\n        url = "https://www.cia.gov/library/publications/the-world-factbook/"+soup2.a[\'href\']\n        page2 = urllib2.urlopen(url)\n        soup3 = BeautifulSoup(page2)\n        data1 = soup3.find_all(\'div\',class_=\'CollapsiblePanel\')\n        final = ""\n        content = ""\n        for d in data1 :\n            head = "<div class=\\"head\\">"+d.span.contents[0].string + d.span.contents[1].string+"</div>"\n            table_tag = d.find_all(\'table\',class_=\'CollapsiblePanelContent\')\n            class_name = table_tag[0].tr.find(\'tr\')[\'class\'][0]\n            tr1 = table_tag[0].find_all(\'tr\',class_="%s"%class_name)\n            div = table_tag[0].find_all(\'td\',id="data")\n            for t1,t2 in zip(tr1,div):\n                content =str(content)+ "<div class=\\"subhead\\">"+str(t1.div.a.contents[0].string)+"</div>"+str(t2)\n            final =str(final) + str(head)+str(content)\n        db.sdata.insert(country_id=c_id,country=country,data=TAG(final))\n        db.commit()\n    return dict(message="filling the database")\n\nresponse._vars=response._caller(fill)\n'
p7
sS'snapshot'
p8
(dp9
S'exception'
p10
(dp11
S'__module__'
p12
S"'httplib'"
p13
sS'partial'
p14
S"''"
p15
sS'__getslice__'
p16
S"<method-wrapper '__getslice__' of IncompleteRead object>"
p17
sS'__str__'
p18
S'<bound method IncompleteRead.__str__ of IncompleteRead(0 bytes read)>'
p19
sS'__reduce__'
p20
S'<built-in method __reduce__ of IncompleteRead object>'
p21
sS'__dict__'
p22
S"{'expected': None, 'partial': ''}"
p23
sS'__sizeof__'
p24
S'<built-in method __sizeof__ of IncompleteRead object>'
p25
sS'__weakref__'
p26
S'None'
p27
sS'__init__'
p28
S'<bound method IncompleteRead.__init__ of IncompleteRead(0 bytes read)>'
p29
sS'__setattr__'
p30
S"<method-wrapper '__setattr__' of IncompleteRead object>"
p31
sS'__reduce_ex__'
p32
S'<built-in method __reduce_ex__ of IncompleteRead object>'
p33
sS'__new__'
p34
S'<built-in method __new__ of type object>'
p35
sS'__format__'
p36
S'<built-in method __format__ of IncompleteRead object>'
p37
sS'__class__'
p38
S"<class 'httplib.IncompleteRead'>"
p39
sS'expected'
p40
S'None'
p41
sS'__doc__'
p42
S'None'
p43
sS'__getitem__'
p44
S"<method-wrapper '__getitem__' of IncompleteRead object>"
p45
sS'__setstate__'
p46
S'<built-in method __setstate__ of IncompleteRead object>'
p47
sS'__getattribute__'
p48
S"<method-wrapper '__getattribute__' of IncompleteRead object>"
p49
sS'args'
p50
S"('',)"
p51
sS'__subclasshook__'
p52
S'<built-in method __subclasshook__ of type object>'
p53
sS'__unicode__'
p54
S'<built-in method __unicode__ of IncompleteRead object>'
p55
sS'__delattr__'
p56
S"<method-wrapper '__delattr__' of IncompleteRead object>"
p57
sS'__repr__'
p58
S'<bound method IncompleteRead.__repr__ of IncompleteRead(0 bytes read)>'
p59
sS'__hash__'
p60
S"<method-wrapper '__hash__' of IncompleteRead object>"
p61
ssS'evalue'
p62
S'IncompleteRead(0 bytes read)'
p63
sS'request'
p64
cgluon.html
XML_unpickle
p65
(S's\x90Z\x00\x00<div><table><tr><td style="font-weight:bold;vertical-align:top">ajax</td><td valign="top">:</td><td><div>False</div></td></tr><tr><td style="font-weight:bold;vertical-align:top">application</td><td valign="top">:</td><td><div>know_your_world</div></td></tr><tr><td style="font-weight:bold;vertical-align:top">args</td><td valign="top">:</td><td><div><table></table></div></td></tr><tr><td style="font-weight:bold;vertical-align:top">body</td><td valign="top">:</td><td><div>&lt;cStringIO.StringO object at 0x7f6e7c438730&gt;</div></td></tr><tr><td style="font-weight:bold;vertical-align:top">cid</td><td valign="top">:</td><td><div>None</div></td></tr><tr><td style="font-weight:bold;vertical-align:top">client</td><td valign="top">:</td><td><div>127.0.0.1</div></td></tr><tr><td style="font-weight:bold;vertical-align:top">controller</td><td valign="top">:</td><td><div>autofill</div></td></tr><tr><td style="font-weight:bold;vertical-align:top">cookies</td><td valign="top">:</td><td><div><table><tr><td style="font-weight:bold;vertical-align:top">registered</td><td valign="top">:</td><td><div>yes<table><tr><td style="font-weight:bold;vertical-align:top">comment</td><td valign="top">:</td><td><div></div></td></tr><tr><td style="font-weight:bold;vertical-align:top">domain</td><td valign="top">:</td><td><div></div></td></tr><tr><td style="font-weight:bold;vertical-align:top">expires</td><td valign="top">:</td><td><div></div></td></tr><tr><td style="font-weight:bold;vertical-align:top">httponly</td><td valign="top">:</td><td><div></div></td></tr><tr><td style="font-weight:bold;vertical-align:top">max-age</td><td valign="top">:</td><td><div></div></td></tr><tr><td style="font-weight:bold;vertical-align:top">path</td><td valign="top">:</td><td><div></div></td></tr><tr><td style="font-weight:bold;vertical-align:top">secure</td><td valign="top">:</td><td><div></div></td></tr><tr><td style="font-weight:bold;vertical-align:top">version</td><td valign="top">:</td><td><div></div></td></tr></table></div></td></tr><tr><td style="font-weight:bold;vertical-align:top">session_id_admin</td><td valign="top">:</td><td><div>127.0.0.1-e56cc139-6756-48c5-956f-70105f2836db<table><tr><td style="font-weight:bold;vertical-align:top">comment</td><td valign="top">:</td><td><div></div></td></tr><tr><td style="font-weight:bold;vertical-align:top">domain</td><td valign="top">:</td><td><div></div></td></tr><tr><td style="font-weight:bold;vertical-align:top">expires</td><td valign="top">:</td><td><div></div></td></tr><tr><td style="font-weight:bold;vertical-align:top">httponly</td><td valign="top">:</td><td><div></div></td></tr><tr><td style="font-weight:bold;vertical-align:top">max-age</td><td valign="top">:</td><td><div></div></td></tr><tr><td style="font-weight:bold;vertical-align:top">path</td><td valign="top">:</td><td><div></div></td></tr><tr><td style="font-weight:bold;vertical-align:top">secure</td><td valign="top">:</td><td><div></div></td></tr><tr><td style="font-weight:bold;vertical-align:top">version</td><td valign="top">:</td><td><div></div></td></tr></table></div></td></tr><tr><td style="font-weight:bold;vertical-align:top">session_id_eden</td><td valign="top">:</td><td><div>127.0.0.1-a2585483-80db-4a80-94cb-cb641bfd012d<table><tr><td style="font-weight:bold;vertical-align:top">comment</td><td valign="top">:</td><td><div></div></td></tr><tr><td style="font-weight:bold;vertical-align:top">domain</td><td valign="top">:</td><td><div></div></td></tr><tr><td style="font-weight:bold;vertical-align:top">expires</td><td valign="top">:</td><td><div></div></td></tr><tr><td style="font-weight:bold;vertical-align:top">httponly</td><td valign="top">:</td><td><div></div></td></tr><tr><td style="font-weight:bold;vertical-align:top">max-age</td><td valign="top">:</td><td><div></div></td></tr><tr><td style="font-weight:bold;vertical-align:top">path</td><td valign="top">:</td><td><div></div></td></tr><tr><td style="font-weight:bold;vertical-align:top">secure</td><td valign="top">:</td><td><div></div></td></tr><tr><td style="font-weight:bold;vertical-align:top">version</td><td valign="top">:</td><td><div></div></td></tr></table></div></td></tr><tr><td style="font-weight:bold;vertical-align:top">session_id_know_your_world</td><td valign="top">:</td><td><div>127.0.0.1-953e6b57-cdab-4de4-9ad0-5f8c44ebe1ed<table><tr><td style="font-weight:bold;vertical-align:top">comment</td><td valign="top">:</td><td><div></div></td></tr><tr><td style="font-weight:bold;vertical-align:top">domain</td><td valign="top">:</td><td><div></div></td></tr><tr><td style="font-weight:bold;vertical-align:top">expires</td><td valign="top">:</td><td><div></div></td></tr><tr><td style="font-weight:bold;vertical-align:top">httponly</td><td valign="top">:</td><td><div></div></td></tr><tr><td style="font-weight:bold;vertical-align:top">max-age</td><td valign="top">:</td><td><div></div></td></tr><tr><td style="font-weight:bold;vertical-align:top">path</td><td valign="top">:</td><td><div></div></td></tr><tr><td style="font-weight:bold;vertical-align:top">secure</td><td valign="top">:</td><td><div></div></td></tr><tr><td style="font-weight:bold;vertical-align:top">version</td><td valign="top">:</td><td><div></div></td></tr></table></div></td></tr></table></div></td></tr><tr><td style="font-weight:bold;vertical-align:top">env</td><td valign="top">:</td><td><div><table><tr><td style="font-weight:bold;vertical-align:top">app_folders</td><td valign="top">:</td><td><div>set([&#x27;/opt/web2py/applications/admin/&#x27;, &#x27;/opt/web2py/applications/know_your_world/&#x27;, &#x27;/opt/web2py/applications/welcome/&#x27;])</div></td></tr><tr><td style="font-weight:bold;vertical-align:top">applications_parent</td><td valign="top">:</td><td><div>/opt/web2py</div></td></tr><tr><td style="font-weight:bold;vertical-align:top">cmd_args</td><td valign="top">:</td><td><div><table></table></div></td></tr><tr><td style="font-weight:bold;vertical-align:top">cmd_options</td><td valign="top">:</td><td><div>&lt;Values at 0x25f1c20: {&#x27;verbose&#x27;: False, &#x27;ip&#x27;: &#x27;127.0.0.1&#x27;, &#x27;with_scheduler&#x27;: False, &#x27;ips&#x27;: [], &#x27;shutdown_timeout&#x27;: 5, &#x27;taskbar&#x27;: False, &#x27;port&#x27;: 8000, &#x27;maxthreads&#x27;: None, &#x27;softcron&#x27;: False, &#x27;server_name&#x27;: &#x27;hardik-HP-Pavilion-dv6-Notebook-PC&#x27;, &#x27;bpython&#x27;: False, &#x27;nogui&#x27;: False, &#x27;pid_filename&#x27;: &#x27;httpserver.pid&#x27;, &#x27;extcron&#x27;: False, &#x27;runcron&#x27;: False, &#x27;run_system_tests&#x27;: False, &#x27;test&#x27;: None, &#x27;folder&#x27;: &#x27;/opt/web2py&#x27;, &#x27;config&#x27;: &#x27;&#x27;, &#x27;minthreads&#x27;: None, &#x27;winservice&#x27;: &#x27;&#x27;, &#x27;shell&#x27;: None, &#x27;run&#x27;: &#x27;&#x27;, &#x27;log_filename&#x27;: &#x27;httpserver.log&#x27;, &#x27;debuglevel&#x27;: 30, &#x27;args&#x27;: [&#x27;&#x27;], &#x27;socket_timeout&#x27;: 5, &#x27;ssl_ca_certificate&#x27;: None, &#x27;scheduler&#x27;: None, &#x27;profiler_filename&#x27;: None, &#x27;ssl_private_key&#x27;: &#x27;&#x27;, &#x27;scheduler_groups&#x27;: None, &#x27;password&#x27;: &#x27;&lt;ask&gt;&#x27;, &#x27;request_queue_size&#x27;: 5, &#x27;ssl_certificate&#x27;: &#x27;&#x27;, &#x27;cronjob&#x27;: False, &#x27;numthreads&#x27;: None, &#x27;quiet&#x27;: False, &#x27;interfaces&#x27;: None, &#x27;import_models&#x27;: False, &#x27;timeout&#x27;: 10, &#x27;plain&#x27;: False, &#x27;nobanner&#x27;: False}&gt;</div></td></tr><tr><td style="font-weight:bold;vertical-align:top">db_sessions</td><td valign="top">:</td><td><div>set([])</div></td></tr><tr><td style="font-weight:bold;vertical-align:top">debugging</td><td valign="top">:</td><td><div>True</div></td></tr><tr><td style="font-weight:bold;vertical-align:top">gluon_parent</td><td valign="top">:</td><td><div>/opt/web2py</div></td></tr><tr><td style="font-weight:bold;vertical-align:top">http_accept</td><td valign="top">:</td><td><div>text/html,application/xhtml+xml,application/xml;q=0.9,*/*;q=0.8</div></td></tr><tr><td style="font-weight:bold;vertical-align:top">http_accept_charset</td><td valign="top">:</td><td><div>ISO-8859-1,utf-8;q=0.7,*;q=0.3</div></td></tr><tr><td style="font-weight:bold;vertical-align:top">http_accept_encoding</td><td valign="top">:</td><td><div>gzip,deflate,sdch</div></td></tr><tr><td style="font-weight:bold;vertical-align:top">http_accept_language</td><td valign="top">:</td><td><div>en-US,en;q=0.8</div></td></tr><tr><td style="font-weight:bold;vertical-align:top">http_connection</td><td valign="top">:</td><td><div>keep-alive</div></td></tr><tr><td style="font-weight:bold;vertical-align:top">http_cookie</td><td valign="top">:</td><td><div>registered=yes; session_id_eden=127.0.0.1-a2585483-80db-4a80-94cb-cb641bfd012d; session_id_know_your_world=127.0.0.1-953e6b57-cdab-4de4-9ad0-5f8c44ebe1ed; session_id_admin=127.0.0.1-e56cc139-6756-48c5-956f-70105f2836db</div></td></tr><tr><td style="font-weight:bold;vertical-align:top">http_host</td><td valign="top">:</td><td><div>127.0.0.1:8000</div></td></tr><tr><td style="font-weight:bold;vertical-align:top">http_referer</td><td valign="top">:</td><td><div>http://127.0.0.1:8000/admin/default/design/know_your_world</div></td></tr><tr><td style="font-weight:bold;vertical-align:top">http_user_agent</td><td valign="top">:</td><td><div>Mozilla/5.0 (X11; Linux x86_64) AppleWebKit/537.22 (KHTML, like Gecko) Chrome/25.0.1364.97 Safari/537.22</div></td></tr><tr><td style="font-weight:bold;vertical-align:top">is_jython</td><td valign="top">:</td><td><div>False</div></td></tr><tr><td style="font-weight:bold;vertical-align:top">is_pypy</td><td valign="top">:</td><td><div>False</div></td></tr><tr><td style="font-weight:bold;vertical-align:top">local_hosts</td><td valign="top">:</td><td><div><table><tr><td><div>::1</div></td></tr><tr><td><div>127.0.1.1</div></td></tr><tr><td><div>hardik-HP-Pavilion-dv6-Notebook-PC</div></td></tr><tr><td><div>::ffff:127.0.0.1</div></td></tr><tr><td><div>127.0.0.1</div></td></tr></table></div></td></tr><tr><td style="font-weight:bold;vertical-align:top">path_info</td><td valign="top">:</td><td><div>/know_your_world/autofill/fill</div></td></tr><tr><td style="font-weight:bold;vertical-align:top">query_string</td><td valign="top">:</td><td><div></div></td></tr><tr><td style="font-weight:bold;vertical-align:top">remote_addr</td><td valign="top">:</td><td><div>127.0.0.1</div></td></tr><tr><td style="font-weight:bold;vertical-align:top">remote_port</td><td valign="top">:</td><td><div>44489</div></td></tr><tr><td style="font-weight:bold;vertical-align:top">request_method</td><td valign="top">:</td><td><div>GET</div></td></tr><tr><td style="font-weight:bold;vertical-align:top">request_uri</td><td valign="top">:</td><td><div>/know_your_world/autofill/fill</div></td></tr><tr><td style="font-weight:bold;vertical-align:top">script_name</td><td valign="top">:</td><td><div></div></td></tr><tr><td style="font-weight:bold;vertical-align:top">server_name</td><td valign="top">:</td><td><div>hardik-HP-Pavilion-dv6-Notebook-PC</div></td></tr><tr><td style="font-weight:bold;vertical-align:top">server_port</td><td valign="top">:</td><td><div>8000</div></td></tr><tr><td style="font-weight:bold;vertical-align:top">server_protocol</td><td valign="top">:</td><td><div>HTTP/1.1</div></td></tr><tr><td style="font-weight:bold;vertical-align:top">server_software</td><td valign="top">:</td><td><div>Rocket 1.2.6</div></td></tr><tr><td style="font-weight:bold;vertical-align:top">web2py_path</td><td valign="top">:</td><td><div>/opt/web2py</div></td></tr><tr><td style="font-weight:bold;vertical-align:top">web2py_version</td><td valign="top">:</td><td><div><table><tr><td><div>2</div></td></tr><tr><td><div>4</div></td></tr><tr><td><div>1</div></td></tr><tr><td><div>alpha.2</div></td></tr><tr><td><div>datetime.datetime(2013, 2, 18, 13, 53, 31)</div></td></tr></table></div></td></tr><tr><td style="font-weight:bold;vertical-align:top">wsgi_errors</td><td valign="top">:</td><td><div>&lt;open file &#x27;&lt;stderr&gt;&#x27;, mode &#x27;w&#x27; at 0x7f6eb33a2270&gt;</div></td></tr><tr><td style="font-weight:bold;vertical-align:top">wsgi_file_wrapper</td><td valign="top">:</td><td><div>&lt;class wsgiref.util.FileWrapper at 0x2579870&gt;</div></td></tr><tr><td style="font-weight:bold;vertical-align:top">wsgi_input</td><td valign="top">:</td><td><div>&lt;socket._fileobject object at 0x7f6e901baad0&gt;</div></td></tr><tr><td style="font-weight:bold;vertical-align:top">wsgi_multiprocess</td><td valign="top">:</td><td><div>False</div></td></tr><tr><td style="font-weight:bold;vertical-align:top">wsgi_multithread</td><td valign="top">:</td><td><div>True</div></td></tr><tr><td style="font-weight:bold;vertical-align:top">wsgi_run_once</td><td valign="top">:</td><td><div>False</div></td></tr><tr><td style="font-weight:bold;vertical-align:top">wsgi_url_scheme</td><td valign="top">:</td><td><div>http</div></td></tr><tr><td style="font-weight:bold;vertical-align:top">wsgi_version</td><td valign="top">:</td><td><div><table><tr><td><div>1</div></td></tr><tr><td><div>0</div></td></tr></table></div></td></tr></table></div></td></tr><tr><td style="font-weight:bold;vertical-align:top">extension</td><td valign="top">:</td><td><div>html</div></td></tr><tr><td style="font-weight:bold;vertical-align:top">folder</td><td valign="top">:</td><td><div>/opt/web2py/applications/know_your_world/</div></td></tr><tr><td style="font-weight:bold;vertical-align:top">function</td><td valign="top">:</td><td><div>fill</div></td></tr><tr><td style="font-weight:bold;vertical-align:top">get_vars</td><td valign="top">:</td><td><div><table></table></div></td></tr><tr><td style="font-weight:bold;vertical-align:top">global_settings</td><td valign="top">:</td><td><div><table><tr><td style="font-weight:bold;vertical-align:top">app_folders</td><td valign="top">:</td><td><div>set([&#x27;/opt/web2py/applications/admin/&#x27;, &#x27;/opt/web2py/applications/know_your_world/&#x27;, &#x27;/opt/web2py/applications/welcome/&#x27;])</div></td></tr><tr><td style="font-weight:bold;vertical-align:top">applications_parent</td><td valign="top">:</td><td><div>/opt/web2py</div></td></tr><tr><td style="font-weight:bold;vertical-align:top">cmd_args</td><td valign="top">:</td><td><div><table></table></div></td></tr><tr><td style="font-weight:bold;vertical-align:top">cmd_options</td><td valign="top">:</td><td><div>&lt;Values at 0x25f1c20: {&#x27;verbose&#x27;: False, &#x27;ip&#x27;: &#x27;127.0.0.1&#x27;, &#x27;with_scheduler&#x27;: False, &#x27;ips&#x27;: [], &#x27;shutdown_timeout&#x27;: 5, &#x27;taskbar&#x27;: False, &#x27;port&#x27;: 8000, &#x27;maxthreads&#x27;: None, &#x27;softcron&#x27;: False, &#x27;server_name&#x27;: &#x27;hardik-HP-Pavilion-dv6-Notebook-PC&#x27;, &#x27;bpython&#x27;: False, &#x27;nogui&#x27;: False, &#x27;pid_filename&#x27;: &#x27;httpserver.pid&#x27;, &#x27;extcron&#x27;: False, &#x27;runcron&#x27;: False, &#x27;run_system_tests&#x27;: False, &#x27;test&#x27;: None, &#x27;folder&#x27;: &#x27;/opt/web2py&#x27;, &#x27;config&#x27;: &#x27;&#x27;, &#x27;minthreads&#x27;: None, &#x27;winservice&#x27;: &#x27;&#x27;, &#x27;shell&#x27;: None, &#x27;run&#x27;: &#x27;&#x27;, &#x27;log_filename&#x27;: &#x27;httpserver.log&#x27;, &#x27;debuglevel&#x27;: 30, &#x27;args&#x27;: [&#x27;&#x27;], &#x27;socket_timeout&#x27;: 5, &#x27;ssl_ca_certificate&#x27;: None, &#x27;scheduler&#x27;: None, &#x27;profiler_filename&#x27;: None, &#x27;ssl_private_key&#x27;: &#x27;&#x27;, &#x27;scheduler_groups&#x27;: None, &#x27;password&#x27;: &#x27;&lt;ask&gt;&#x27;, &#x27;request_queue_size&#x27;: 5, &#x27;ssl_certificate&#x27;: &#x27;&#x27;, &#x27;cronjob&#x27;: False, &#x27;numthreads&#x27;: None, &#x27;quiet&#x27;: False, &#x27;interfaces&#x27;: None, &#x27;import_models&#x27;: False, &#x27;timeout&#x27;: 10, &#x27;plain&#x27;: False, &#x27;nobanner&#x27;: False}&gt;</div></td></tr><tr><td style="font-weight:bold;vertical-align:top">db_sessions</td><td valign="top">:</td><td><div>set([])</div></td></tr><tr><td style="font-weight:bold;vertical-align:top">debugging</td><td valign="top">:</td><td><div>True</div></td></tr><tr><td style="font-weight:bold;vertical-align:top">gluon_parent</td><td valign="top">:</td><td><div>/opt/web2py</div></td></tr><tr><td style="font-weight:bold;vertical-align:top">is_jython</td><td valign="top">:</td><td><div>False</div></td></tr><tr><td style="font-weight:bold;vertical-align:top">is_pypy</td><td valign="top">:</td><td><div>False</div></td></tr><tr><td style="font-weight:bold;vertical-align:top">local_hosts</td><td valign="top">:</td><td><div><table><tr><td><div>::1</div></td></tr><tr><td><div>127.0.1.1</div></td></tr><tr><td><div>hardik-HP-Pavilion-dv6-Notebook-PC</div></td></tr><tr><td><div>::ffff:127.0.0.1</div></td></tr><tr><td><div>127.0.0.1</div></td></tr></table></div></td></tr><tr><td style="font-weight:bold;vertical-align:top">web2py_version</td><td valign="top">:</td><td><div><table><tr><td><div>2</div></td></tr><tr><td><div>4</div></td></tr><tr><td><div>1</div></td></tr><tr><td><div>alpha.2</div></td></tr><tr><td><div>datetime.datetime(2013, 2, 18, 13, 53, 31)</div></td></tr></table></div></td></tr></table></div></td></tr><tr><td style="font-weight:bold;vertical-align:top">is_https</td><td valign="top">:</td><td><div>False</div></td></tr><tr><td style="font-weight:bold;vertical-align:top">is_local</td><td valign="top">:</td><td><div>True</div></td></tr><tr><td style="font-weight:bold;vertical-align:top">is_restful</td><td valign="top">:</td><td><div>False</div></td></tr><tr><td style="font-weight:bold;vertical-align:top">now</td><td valign="top">:</td><td><div>datetime.datetime(2013, 3, 5, 22, 38, 19, 582715)</div></td></tr><tr><td style="font-weight:bold;vertical-align:top">post_vars</td><td valign="top">:</td><td><div><table></table></div></td></tr><tr><td style="font-weight:bold;vertical-align:top">raw_args</td><td valign="top">:</td><td><div></div></td></tr><tr><td style="font-weight:bold;vertical-align:top">raw_extension</td><td valign="top">:</td><td><div>None</div></td></tr><tr><td style="font-weight:bold;vertical-align:top">url</td><td valign="top">:</td><td><div>/know_your_world/autofill/fill</div></td></tr><tr><td style="font-weight:bold;vertical-align:top">utcnow</td><td valign="top">:</td><td><div>datetime.datetime(2013, 3, 5, 17, 8, 19, 582736)</div></td></tr><tr><td style="font-weight:bold;vertical-align:top">uuid</td><td valign="top">:</td><td><div>know_your_world/127.0.0.1.2013-03-05.22-38-19.56043afe-70fb-45b3-a7f2-4e61659806f0</div></td></tr><tr><td style="font-weight:bold;vertical-align:top">vars</td><td valign="top">:</td><td><div><table></table></div></td></tr><tr><td style="font-weight:bold;vertical-align:top">wsgi</td><td valign="top">:</td><td><div><table><tr><td style="font-weight:bold;vertical-align:top">environ</td><td valign="top">:</td><td><div><table><tr><td style="font-weight:bold;vertical-align:top">HTTP_ACCEPT</td><td valign="top">:</td><td><div>text/html,application/xhtml+xml,application/xml;q=0.9,*/*;q=0.8</div></td></tr><tr><td style="font-weight:bold;vertical-align:top">HTTP_ACCEPT_CHARSET</td><td valign="top">:</td><td><div>ISO-8859-1,utf-8;q=0.7,*;q=0.3</div></td></tr><tr><td style="font-weight:bold;vertical-align:top">HTTP_ACCEPT_ENCODING</td><td valign="top">:</td><td><div>gzip,deflate,sdch</div></td></tr><tr><td style="font-weight:bold;vertical-align:top">HTTP_ACCEPT_LANGUAGE</td><td valign="top">:</td><td><div>en-US,en;q=0.8</div></td></tr><tr><td style="font-weight:bold;vertical-align:top">HTTP_CONNECTION</td><td valign="top">:</td><td><div>keep-alive</div></td></tr><tr><td style="font-weight:bold;vertical-align:top">HTTP_COOKIE</td><td valign="top">:</td><td><div>registered=yes; session_id_eden=127.0.0.1-a2585483-80db-4a80-94cb-cb641bfd012d; session_id_know_your_world=127.0.0.1-953e6b57-cdab-4de4-9ad0-5f8c44ebe1ed; session_id_admin=127.0.0.1-e56cc139-6756-48c5-956f-70105f2836db</div></td></tr><tr><td style="font-weight:bold;vertical-align:top">HTTP_HOST</td><td valign="top">:</td><td><div>127.0.0.1:8000</div></td></tr><tr><td style="font-weight:bold;vertical-align:top">HTTP_REFERER</td><td valign="top">:</td><td><div>http://127.0.0.1:8000/admin/default/design/know_your_world</div></td></tr><tr><td style="font-weight:bold;vertical-align:top">HTTP_USER_AGENT</td><td valign="top">:</td><td><div>Mozilla/5.0 (X11; Linux x86_64) AppleWebKit/537.22 (KHTML, like Gecko) Chrome/25.0.1364.97 Safari/537.22</div></td></tr><tr><td style="font-weight:bold;vertical-align:top">PATH_INFO</td><td valign="top">:</td><td><div>/know_your_world/autofill/fill</div></td></tr><tr><td style="font-weight:bold;vertical-align:top">QUERY_STRING</td><td valign="top">:</td><td><div></div></td></tr><tr><td style="font-weight:bold;vertical-align:top">REMOTE_ADDR</td><td valign="top">:</td><td><div>127.0.0.1</div></td></tr><tr><td style="font-weight:bold;vertical-align:top">REMOTE_PORT</td><td valign="top">:</td><td><div>44489</div></td></tr><tr><td style="font-weight:bold;vertical-align:top">REQUEST_METHOD</td><td valign="top">:</td><td><div>GET</div></td></tr><tr><td style="font-weight:bold;vertical-align:top">REQUEST_URI</td><td valign="top">:</td><td><div>/know_your_world/autofill/fill</div></td></tr><tr><td style="font-weight:bold;vertical-align:top">SCRIPT_NAME</td><td valign="top">:</td><td><div></div></td></tr><tr><td style="font-weight:bold;vertical-align:top">SERVER_NAME</td><td valign="top">:</td><td><div>hardik-HP-Pavilion-dv6-Notebook-PC</div></td></tr><tr><td style="font-weight:bold;vertical-align:top">SERVER_PORT</td><td valign="top">:</td><td><div>8000</div></td></tr><tr><td style="font-weight:bold;vertical-align:top">SERVER_PROTOCOL</td><td valign="top">:</td><td><div>HTTP/1.1</div></td></tr><tr><td style="font-weight:bold;vertical-align:top">SERVER_SOFTWARE</td><td valign="top">:</td><td><div>Rocket 1.2.6</div></td></tr><tr><td style="font-weight:bold;vertical-align:top">wsgi.errors</td><td valign="top">:</td><td><div>&lt;open file &#x27;&lt;stderr&gt;&#x27;, mode &#x27;w&#x27; at 0x7f6eb33a2270&gt;</div></td></tr><tr><td style="font-weight:bold;vertical-align:top">wsgi.file_wrapper</td><td valign="top">:</td><td><div>&lt;class wsgiref.util.FileWrapper at 0x2579870&gt;</div></td></tr><tr><td style="font-weight:bold;vertical-align:top">wsgi.input</td><td valign="top">:</td><td><div>&lt;cStringIO.StringO object at 0x7f6e7c438730&gt;</div></td></tr><tr><td style="font-weight:bold;vertical-align:top">wsgi.multiprocess</td><td valign="top">:</td><td><div>False</div></td></tr><tr><td style="font-weight:bold;vertical-align:top">wsgi.multithread</td><td valign="top">:</td><td><div>True</div></td></tr><tr><td style="font-weight:bold;vertical-align:top">wsgi.run_once</td><td valign="top">:</td><td><div>False</div></td></tr><tr><td style="font-weight:bold;vertical-align:top">wsgi.url_scheme</td><td valign="top">:</td><td><div>http</div></td></tr><tr><td style="font-weight:bold;vertical-align:top">wsgi.version</td><td valign="top">:</td><td><div>1</div></td></tr></table></div></td></tr></table></div></td></tr></table></div>'
tRp66
sS'frames'
p67
(lp68
(dp69
S'file'
p70
S'/opt/web2py/gluon/restricted.py'
p71
sS'dump'
p72
(dp73
S'environment'
p74
S"{'A': <class 'gluon.html.A'>, 'B': <class 'gluon.html.B'>, 'BEAUTIFY': <class 'gluon.html.BEAUTIFY'>, 'BODY': <class 'gluon.html.BODY'>, 'BR': <class 'gluon.html.BR'>, 'BUTTON': <class 'gluon.html.BUTTON'>, 'BeautifulSoup': <class 'bs4.BeautifulSoup'>, 'CAT': <class 'gluon.html.CAT'>, 'CENTER': <class 'gluon.html.CENTER'>, 'CLEANUP': <class 'gluon.validators.CLEANUP'>, ...}"
p75
sS'ccode'
p76
S'<code object <module> at 0x7f6e9073a4b0, file "/...know_your_world/controllers/autofill.py", line 1>'
p77
ssS'lnum'
p78
I212
sS'lines'
p79
(dp80
I207
S'    try:'
p81
sI208
S'        if isinstance(code, types.CodeType):'
p82
sI209
S'            ccode = code'
p83
sI210
S'        else:'
p84
sI211
S'            ccode = compile2(code, layer)'
p85
sI212
S'        exec ccode in environment'
p86
sI213
S'    except HTTP:'
p87
sI214
S'        raise'
p88
sI215
S'    except RestrictedError:'
p89
sI216
S'        # do not encapsulate (obfuscate) the original RestrictedError'
p90
ssS'call'
p91
S'(code=\'from bs4 import BeautifulSoup\\nimport re,urllib2,...atabase")\\n\\nresponse._vars=response._caller(fill)\\n\', environment={\'A\': <class \'gluon.html.A\'>, \'B\': <class \'gluon.html.B\'>, \'BEAUTIFY\': <class \'gluon.html.BEAUTIFY\'>, \'BODY\': <class \'gluon.html.BODY\'>, \'BR\': <class \'gluon.html.BR\'>, \'BUTTON\': <class \'gluon.html.BUTTON\'>, \'BeautifulSoup\': <class \'bs4.BeautifulSoup\'>, \'CAT\': <class \'gluon.html.CAT\'>, \'CENTER\': <class \'gluon.html.CENTER\'>, \'CLEANUP\': <class \'gluon.validators.CLEANUP\'>, ...}, layer=\'/opt/web2py/applications/know_your_world/controllers/autofill.py\')'
p92
sS'func'
p93
S'restricted'
p94
sa(dp95
g70
S'/opt/web2py/applications/know_your_world/controllers/autofill.py'
p96
sg72
(dp97
sg78
I53
sg79
(dp98
I42
S"            table_tag = d.find_all('table',class_='CollapsiblePanelContent')"
p99
sI43
S"            class_name = table_tag[0].tr.find('tr')['class'][0]"
p100
sI44
S'            tr1 = table_tag[0].find_all(\'tr\',class_="%s"%class_name)'
p101
sI45
S'            div = table_tag[0].find_all(\'td\',id="data")'
p102
sI46
S'            for t1,t2 in zip(tr1,div):'
p103
sI47
S'                content =str(content)+ "<div class=\\"subhead\\">"+str(t1.div.a.contents[0].string)+"</div>"+str(t2)'
p104
sI48
S'            final =str(final) + str(head)+str(content)'
p105
sI49
S'        db.sdata.insert(country_id=c_id,country=country,data=final)'
p106
sI50
S'        db.commit()'
p107
sI51
S'    return dict(message="filling the database")'
p108
ssg91
S'()'
p109
sg93
S'<module>'
p110
sa(dp111
g70
S'/opt/web2py/gluon/globals.py'
p112
sg72
(dp113
S'self'
p114
S'undefined'
p115
sS'f'
S'<function fill>'
p116
ssg78
I193
sg79
(dp117
I192
S'        self._vars = None'
p118
sI193
S'        self._caller = lambda f: f()'
p119
sI194
S'        self._view_environment = None'
p120
sI195
S'        self._custom_commit = None'
p121
sI196
S'        self._custom_rollback = None'
p122
sI197
S''
sI188
S'        self.menu = []             # used by the default view layout'
p123
sI189
S'        self.files = []            # used by web2py_ajax.html'
p124
sI190
S'        self.generic_patterns = []  # patterns to allow generic views'
p125
sI191
S"        self.delimiters = ('{{', '}}')"
p126
ssg91
S'(f=<function fill>)'
p127
sg93
S'<lambda>'
p128
sa(dp129
g70
S'/opt/web2py/applications/know_your_world/controllers/autofill.py'
p130
sg72
(dp131
S'soup3'
p132
S'<!DOCTYPE html PUBLIC "-//W3C//DTD XHTML 1.0 Str.../javascript"></script><!-- InstanceEnd --></html>'
p133
sS'page2'
p134
S'<addinfourl at 140111957765944 whose fp = <socket._fileobject object>>'
p135
sS'global BeautifulSoup'
p136
S"<class 'bs4.BeautifulSoup'>"
p137
ssg78
I36
sg79
(dp138
I32
S'            continue'
p139
sI33
S"        c_id = soup2.a['href']"
p140
sI34
S'        url = "https://www.cia.gov/library/publications/the-world-factbook/"+soup2.a[\'href\']'
p141
sI35
S'        page2 = urllib2.urlopen(url)'
p142
sI36
S'        soup3 = BeautifulSoup(page2)'
p143
sI37
S"        data1 = soup3.find_all('div',class_='CollapsiblePanel')"
p144
sI38
S'        final = ""'
p145
sI39
S'        content = ""'
p146
sI40
S'        for d in data1 :'
p147
sI31
S'        else:'
p148
ssg91
S'()'
p149
sg93
S'fill'
p150
sa(dp151
g70
S'/usr/local/lib/python2.7/dist-packages/beautifulsoup4-4.1.3-py2.7.egg/bs4/__init__.py'
p152
sg72
(dp153
S'markup.read'
p154
S'<bound method _fileobject.read of <socket._fileobject object>>'
p155
sS'markup'
p156
S'<addinfourl at 140111957765944 whose fp = <socket._fileobject object>>'
p157
ssg78
I166
sg79
(dp158
I161
S'        self.parse_only = parse_only'
p159
sI162
S''
sI163
S'        self.reset()'
p160
sI164
S''
sI165
S"        if hasattr(markup, 'read'):        # It's a file-type object."
p161
sI166
S'            markup = markup.read()'
p162
sI167
S'        (self.markup, self.original_encoding, self.declared_html_encoding,'
p163
sI168
S'         self.contains_replacement_characters) = ('
p164
sI169
S'            self.builder.prepare_markup(markup, from_encoding))'
p165
sI170
S''
ssg91
S"(self=, markup=<addinfourl at 140111957765944 whose fp = <socket._fileobject object>>, features=['html', 'fast'], builder=<bs4.builder._lxml.LXMLTreeBuilder object>, parse_only=None, from_encoding=None, **kwargs={})"
p166
sg93
g28
sa(dp167
g70
S'/usr/lib/python2.7/socket.py'
p168
sg72
(dp169
S'self._sock.recv'
p170
S'<bound method HTTPResponse.read of <httplib.HTTPResponse instance>>'
p171
sS'self._sock'
p172
S'<httplib.HTTPResponse instance>'
p173
sS'self'
p174
S'<socket._fileobject object>'
p175
sS'data'
p176
S'\'er="0" alt="Field info displayed for all countri...2px;">\\n\\t\\t\\t\\t\\t\\t\\t\\tregistered in other countries:\\n\\t\\t\\t\''
p177
sS'rbufsize'
p178
S'8192'
p179
ssg78
I351
sg79
(dp180
I352
S'                except error, e:'
p181
sI353
S'                    if e.args[0] == EINTR:'
p182
sI354
S'                        continue'
p183
sI355
S'                    raise'
p184
sI346
S'        if size < 0:'
p185
sI347
S'            # Read until EOF'
p186
sI348
S'            self._rbuf = StringIO()  # reset _rbuf.  we consume it via buf.'
p187
sI349
S'            while True:'
p188
sI350
S'                try:'
p189
sI351
S'                    data = self._sock.recv(rbufsize)'
p190
ssg91
S'(self=<socket._fileobject object>, size=-1)'
p191
sg93
S'read'
p192
sa(dp193
g70
S'/usr/lib/python2.7/httplib.py'
p194
sg72
(dp195
S'self._read_chunked'
p196
S'<bound method HTTPResponse._read_chunked of <httplib.HTTPResponse instance>>'
p197
sS'self'
p198
S'<httplib.HTTPResponse instance>'
p199
sS'amt'
p200
S'8192'
p201
ssg78
I541
sg79
(dp202
I544
S'            # unbounded read'
p203
sI545
S'            if self.length is None:'
p204
sI536
S"        if self._method == 'HEAD':"
p205
sI537
S'            self.close()'
p206
sI538
S"            return ''"
p207
sI539
S''
sI540
S'        if self.chunked:'
p208
sI541
S'            return self._read_chunked(amt)'
p209
sI542
S''
sI543
S'        if amt is None:'
p210
ssg91
S'(self=<httplib.HTTPResponse instance>, amt=8192)'
p211
sg93
g192
sa(dp212
g70
S'/usr/lib/python2.7/httplib.py'
p213
sg72
(dp214
S'global IncompleteRead'
p215
S"<class 'httplib.IncompleteRead'>"
p216
sS'value'
p217
S'[]'
p218
sS"''.join"
p219
g115
ssg78
I586
sg79
(dp220
I581
S'                    chunk_left = int(line, 16)'
p221
sI582
S'                except ValueError:'
p222
sI583
S'                    # close the connection as protocol synchronisation is'
p223
sI584
S'                    # probably lost'
p224
sI585
S'                    self.close()'
p225
sI586
S"                    raise IncompleteRead(''.join(value))"
p226
sI587
S'                if chunk_left == 0:'
p227
sI588
S'                    break'
p228
sI589
S'            if amt is None:'
p229
sI590
S'                value.append(self._safe_read(chunk_left))'
p230
ssg91
S'(self=<httplib.HTTPResponse instance>, amt=8192)'
p231
sg93
S'_read_chunked'
p232
sasS'pyver'
p233
S'Python 2.7.3: /usr/bin/python (prefix: /usr)'
p234
sS'session'
p235
g65
(S's\x1a\x00\x00\x00<div><table></table></div>'
tRp236
sS'etype'
p237
S"<class 'httplib.IncompleteRead'>"
p238
sS'date'
p239
S'Tue Mar  5 22:58:41 2013'
p240
sS'response'
p241
g65
(S's\xd8+\x00\x00<div><table><tr><td style="font-weight:bold;vertical-align:top">body</td><td valign="top">:</td><td><div>&lt;cStringIO.StringO object at 0x7f6e7cf80a08&gt;</div></td></tr><tr><td style="font-weight:bold;vertical-align:top">cookies</td><td valign="top">:</td><td><div><table><tr><td style="font-weight:bold;vertical-align:top">session_id_know_your_world</td><td valign="top">:</td><td><div>127.0.0.1-953e6b57-cdab-4de4-9ad0-5f8c44ebe1ed<table><tr><td style="font-weight:bold;vertical-align:top">comment</td><td valign="top">:</td><td><div></div></td></tr><tr><td style="font-weight:bold;vertical-align:top">domain</td><td valign="top">:</td><td><div></div></td></tr><tr><td style="font-weight:bold;vertical-align:top">expires</td><td valign="top">:</td><td><div></div></td></tr><tr><td style="font-weight:bold;vertical-align:top">httponly</td><td valign="top">:</td><td><div></div></td></tr><tr><td style="font-weight:bold;vertical-align:top">max-age</td><td valign="top">:</td><td><div></div></td></tr><tr><td style="font-weight:bold;vertical-align:top">path</td><td valign="top">:</td><td><div>/</div></td></tr><tr><td style="font-weight:bold;vertical-align:top">secure</td><td valign="top">:</td><td><div></div></td></tr><tr><td style="font-weight:bold;vertical-align:top">version</td><td valign="top">:</td><td><div></div></td></tr></table></div></td></tr></table></div></td></tr><tr><td style="font-weight:bold;vertical-align:top">delimiters</td><td valign="top">:</td><td><div><table><tr><td><div>{{</div></td></tr><tr><td><div>}}</div></td></tr></table></div></td></tr><tr><td style="font-weight:bold;vertical-align:top">files</td><td valign="top">:</td><td><div><table></table></div></td></tr><tr><td style="font-weight:bold;vertical-align:top">flash</td><td valign="top">:</td><td><div></div></td></tr><tr><td style="font-weight:bold;vertical-align:top">generic_patterns</td><td valign="top">:</td><td><div><table></table></div></td></tr><tr><td style="font-weight:bold;vertical-align:top">google_analytics_id</td><td valign="top">:</td><td><div>None</div></td></tr><tr><td style="font-weight:bold;vertical-align:top">headers</td><td valign="top">:</td><td><div><table><tr><td style="font-weight:bold;vertical-align:top">X-Powered-By</td><td valign="top">:</td><td><div>web2py</div></td></tr></table></div></td></tr><tr><td style="font-weight:bold;vertical-align:top">logo</td><td valign="top">:</td><td><div><a class="brand" href="http://www.web2py.com/"><b>web<span>2</span>py</b>&trade;&nbsp;</a></div></td></tr><tr><td style="font-weight:bold;vertical-align:top">menu</td><td valign="top">:</td><td><div><table><tr><td><div><table><tr><td><div>Home</div></td></tr><tr><td><div>False</div></td></tr><tr><td><div>/know_your_world/default/index</div></td></tr><tr><td><div><table></table></div></td></tr></table></div></td></tr><tr><td><div><table><tr><td><div><span class="highlighted">web2py</span></div></td></tr><tr><td><div>False</div></td></tr><tr><td><div>http://web2py.com</div></td></tr><tr><td><div><table><tr><td><div><table><tr><td><div>My Sites</div></td></tr><tr><td><div>False</div></td></tr><tr><td><div>/admin/default/site</div></td></tr></table></div></td></tr><tr><td><div><table><tr><td><div>This App</div></td></tr><tr><td><div>False</div></td></tr><tr><td><div>/admin/default/design/know_your_world</div></td></tr><tr><td><div>[(&lt;lazyT &#x27;Controller&#x27;&gt;, False, &#x27;/admin/default/edit/know_your_world/controllers/autofill.py&#x27;), (&lt;lazyT &#x27;View&#x27;&gt;, False, &#x27;/admin/default/edit/know_your_world/views/autofill/fill.html&#x27;), (&lt;lazyT &#x27;Layout&#x27;&gt;, False, &#x27;/admin/default/edit/know_your_world/views/layout.html&#x27;), (&lt;lazyT &#x27;Stylesheet&#x27;&gt;, False, &#x27;/admin/default/edit/know_your_world/static/css/web2py.css&#x27;), (&lt;lazyT &#x27;DB Model&#x27;&gt;, False, &#x27;/admin/default/edit/know_your_world/models/db.py&#x27;), (&lt;lazyT &#x27;Menu Model&#x27;&gt;, False, &#x27;/admin/default/edit/know_your_world/models/menu.py&#x27;), (&lt;lazyT &#x27;Database&#x27;&gt;, False, &#x27;/know_your_world/appadmin/index&#x27;), (&lt;lazyT &#x27;Errors&#x27;&gt;, False, &#x27;/admin/default/errors/know_your_world&#x27;), (&lt;lazyT &#x27;About&#x27;&gt;, False, &#x27;/admin/default/about/know_your_world&#x27;)]</div></td></tr></table></div></td></tr><tr><td><div><table><tr><td><div>web2py.com</div></td></tr><tr><td><div>False</div></td></tr><tr><td><div>http://www.web2py.com</div></td></tr><tr><td><div>[(&lt;lazyT &#x27;Download&#x27;&gt;, False, &#x27;http://www.web2py.com/examples/default/download&#x27;), (&lt;lazyT &#x27;Support&#x27;&gt;, False, &#x27;http://www.web2py.com/examples/default/support&#x27;), (&lt;lazyT &#x27;Demo&#x27;&gt;, False, &#x27;http://web2py.com/demo_admin&#x27;), (&lt;lazyT &#x27;Quick Examples&#x27;&gt;, False, &#x27;http://web2py.com/examples/default/examples&#x27;), (&lt;lazyT &#x27;FAQ&#x27;&gt;, False, &#x27;http://web2py.com/AlterEgo&#x27;), (&lt;lazyT &#x27;Videos&#x27;&gt;, False, &#x27;http://www.web2py.com/examples/default/videos/&#x27;), (&lt;lazyT &#x27;Free Applications&#x27;&gt;, False, &#x27;http://web2py.com/appliances&#x27;), (&lt;lazyT &#x27;Plugins&#x27;&gt;, False, &#x27;http://web2py.com/plugins&#x27;), (&lt;lazyT &#x27;Layouts&#x27;&gt;, False, &#x27;http://web2py.com/layouts&#x27;), (&lt;lazyT &#x27;Recipes&#x27;&gt;, False, &#x27;http://web2pyslices.com/&#x27;), (&lt;lazyT &#x27;Semantic&#x27;&gt;, False, &#x27;http://web2py.com/semantic&#x27;)]</div></td></tr></table></div></td></tr><tr><td><div><table><tr><td><div>Documentation</div></td></tr><tr><td><div>False</div></td></tr><tr><td><div>http://www.web2py.com/book</div></td></tr><tr><td><div>[(&lt;lazyT &#x27;Preface&#x27;&gt;, False, &#x27;http://www.web2py.com/book/default/chapter/00&#x27;), (&lt;lazyT &#x27;Introduction&#x27;&gt;, False, &#x27;http://www.web2py.com/book/default/chapter/01&#x27;), (&lt;lazyT &#x27;Python&#x27;&gt;, False, &#x27;http://www.web2py.com/book/default/chapter/02&#x27;), (&lt;lazyT &#x27;Overview&#x27;&gt;, False, &#x27;http://www.web2py.com/book/default/chapter/03&#x27;), (&lt;lazyT &#x27;The Core&#x27;&gt;, False, &#x27;http://www.web2py.com/book/default/chapter/04&#x27;), (&lt;lazyT &#x27;The Views&#x27;&gt;, False, &#x27;http://www.web2py.com/book/default/chapter/05&#x27;), (&lt;lazyT &#x27;Database&#x27;&gt;, False, &#x27;http://www.web2py.com/book/default/chapter/06&#x27;), (&lt;lazyT &#x27;Forms and Validators&#x27;&gt;, False, &#x27;http://www.web2py.com/book/default/chapter/07&#x27;), (&lt;lazyT &#x27;Email and SMS&#x27;&gt;, False, &#x27;http://www.web2py.com/book/default/chapter/08&#x27;), (&lt;lazyT &#x27;Access Control&#x27;&gt;, False, &#x27;http://www.web2py.com/book/default/chapter/09&#x27;), (&lt;lazyT &#x27;Services&#x27;&gt;, False, &#x27;http://www.web2py.com/book/default/chapter/10&#x27;), (&lt;lazyT &#x27;Ajax Recipes&#x27;&gt;, False, &#x27;http://www.web2py.com/book/default/chapter/11&#x27;), (&lt;lazyT &#x27;Components and Plugins&#x27;&gt;, False, &#x27;http://www.web2py.com/book/default/chapter/12&#x27;), (&lt;lazyT &#x27;Deployment Recipes&#x27;&gt;, False, &#x27;http://www.web2py.com/book/default/chapter/13&#x27;), (&lt;lazyT &#x27;Other Recipes&#x27;&gt;, False, &#x27;http://www.web2py.com/book/default/chapter/14&#x27;), (&lt;lazyT &#x27;Buy this book&#x27;&gt;, False, &#x27;http://stores.lulu.com/web2py&#x27;)]</div></td></tr></table></div></td></tr><tr><td><div><table><tr><td><div>Community</div></td></tr><tr><td><div>False</div></td></tr><tr><td><div>None</div></td></tr><tr><td><div>[(&lt;lazyT &#x27;Groups&#x27;&gt;, False, &#x27;http://www.web2py.com/examples/default/usergroups&#x27;), (&lt;lazyT &#x27;Twitter&#x27;&gt;, False, &#x27;http://twitter.com/web2py&#x27;), (&lt;lazyT &#x27;Live Chat&#x27;&gt;, False, &#x27;http://webchat.freenode.net/?channels=web2py&#x27;)]</div></td></tr></table></div></td></tr><tr><td><div><table><tr><td><div>Plugins</div></td></tr><tr><td><div>False</div></td></tr><tr><td><div>None</div></td></tr><tr><td><div>[(&#x27;plugin_wiki&#x27;, False, &#x27;http://web2py.com/examples/default/download&#x27;), (&lt;lazyT &#x27;Other Plugins&#x27;&gt;, False, &#x27;http://web2py.com/plugins&#x27;), (&lt;lazyT &#x27;Layout Plugins&#x27;&gt;, False, &#x27;http://web2py.com/layouts&#x27;)]</div></td></tr></table></div></td></tr></table></div></td></tr></table></div></td></tr></table></div></td></tr><tr><td style="font-weight:bold;vertical-align:top">meta</td><td valign="top">:</td><td><div><table><tr><td style="font-weight:bold;vertical-align:top">author</td><td valign="top">:</td><td><div>Your Name &lt;you@example.com&gt;</div></td></tr><tr><td style="font-weight:bold;vertical-align:top">description</td><td valign="top">:</td><td><div>a cool new app</div></td></tr><tr><td style="font-weight:bold;vertical-align:top">generator</td><td valign="top">:</td><td><div>Web2py Web Framework</div></td></tr><tr><td style="font-weight:bold;vertical-align:top">keywords</td><td valign="top">:</td><td><div>web2py, python, framework</div></td></tr></table></div></td></tr><tr><td style="font-weight:bold;vertical-align:top">models_to_run</td><td valign="top">:</td><td><div><table><tr><td><div>^\\w+\\.py$</div></td></tr><tr><td><div>^autofill/\\w+\\.py$</div></td></tr><tr><td><div>^autofill/fill/\\w+\\.py$</div></td></tr></table></div></td></tr><tr><td style="font-weight:bold;vertical-align:top">postprocessing</td><td valign="top">:</td><td><div><table></table></div></td></tr><tr><td style="font-weight:bold;vertical-align:top">session_cookie_expires</td><td valign="top">:</td><td><div>None</div></td></tr><tr><td style="font-weight:bold;vertical-align:top">session_data_name</td><td valign="top">:</td><td><div>session_data_know_your_world</div></td></tr><tr><td style="font-weight:bold;vertical-align:top">session_file</td><td valign="top">:</td><td><div>None</div></td></tr><tr><td style="font-weight:bold;vertical-align:top">session_filename</td><td valign="top">:</td><td><div>/opt/web2py/applications/know_your_world/sessions/127.0.0.1-953e6b57-cdab-4de4-9ad0-5f8c44ebe1ed</div></td></tr><tr><td style="font-weight:bold;vertical-align:top">session_id</td><td valign="top">:</td><td><div>127.0.0.1-953e6b57-cdab-4de4-9ad0-5f8c44ebe1ed</div></td></tr><tr><td style="font-weight:bold;vertical-align:top">session_id_name</td><td valign="top">:</td><td><div>session_id_know_your_world</div></td></tr><tr><td style="font-weight:bold;vertical-align:top">session_new</td><td valign="top">:</td><td><div>False</div></td></tr><tr><td style="font-weight:bold;vertical-align:top">session_storage_type</td><td valign="top">:</td><td><div>file</div></td></tr><tr><td style="font-weight:bold;vertical-align:top">status</td><td valign="top">:</td><td><div>200</div></td></tr><tr><td style="font-weight:bold;vertical-align:top">subtitle</td><td valign="top">:</td><td><div>customize me!</div></td></tr><tr><td style="font-weight:bold;vertical-align:top">title</td><td valign="top">:</td><td><div>Know Your World</div></td></tr><tr><td style="font-weight:bold;vertical-align:top">view</td><td valign="top">:</td><td><div>autofill/fill.html</div></td></tr></table></div>'
tRp242
sS'locals'
p243
(dp244
S'i'
S'-1'
p245
sS'self'
p246
S'<httplib.HTTPResponse instance>'
p247
sS'chunk_left'
p248
S'None'
p249
sS'value'
p250
S'[]'
p251
sS'line'
p252
S"''"
p253
sS'amt'
p254
S'8192'
p255
sssS'traceback'
p256
S'Traceback (most recent call last):\n  File "/opt/web2py/gluon/restricted.py", line 212, in restricted\n    exec ccode in environment\n  File "/opt/web2py/applications/know_your_world/controllers/autofill.py", line 53, in <module>\n  File "/opt/web2py/gluon/globals.py", line 193, in <lambda>\n    self._caller = lambda f: f()\n  File "/opt/web2py/applications/know_your_world/controllers/autofill.py", line 36, in fill\n    soup3 = BeautifulSoup(page2)\n  File "/usr/local/lib/python2.7/dist-packages/beautifulsoup4-4.1.3-py2.7.egg/bs4/__init__.py", line 166, in __init__\n    markup = markup.read()\n  File "/usr/lib/python2.7/socket.py", line 351, in read\n    data = self._sock.recv(rbufsize)\n  File "/usr/lib/python2.7/httplib.py", line 541, in read\n    return self._read_chunked(amt)\n  File "/usr/lib/python2.7/httplib.py", line 586, in _read_chunked\n    raise IncompleteRead(\'\'.join(value))\nIncompleteRead: IncompleteRead(0 bytes read)\n'
p257
s.